; Function Attrs: mustprogress uwtable
define hidden void @_Z10sample_negRKSt6vectorIN2cv3MatESaIS1_EERS3_RKNS0_5Size_IiEE(ptr noundef nonnull readonly align 8 captures(none) dereferenceable(24) %0, ptr noundef nonnull align 8 dereferenceable(24) %1, ptr noundef nonnull readonly align 4 captures(none) dereferenceable(8) %2) local_unnamed_addr #3 personality ptr @__gxx_personality_v0 {
  %4 = alloca %"class.cv::Rect_", align 8
  %5 = alloca %"class.cv::Mat", align 8
  %6 = alloca %"class.cv::Mat", align 8
  call void @llvm.lifetime.start.p0(i64 16, ptr nonnull %4) #21
  store i64 0, ptr %4, align 8
  %7 = load i32, ptr %2, align 4, !tbaa !50
  %8 = getelementptr inbounds nuw i8, ptr %4, i64 8
  store i32 %7, ptr %8, align 8, !tbaa !94
  %9 = getelementptr inbounds nuw i8, ptr %2, i64 4
  %10 = load i32, ptr %9, align 4, !tbaa !51
  %11 = getelementptr inbounds nuw i8, ptr %4, i64 12
  store i32 %10, ptr %11, align 4, !tbaa !96
  %12 = tail call i64 @time(ptr noundef null) #21
  %13 = trunc i64 %12 to i32
  tail call void @srand(i32 noundef %13) #21
  %14 = getelementptr inbounds nuw i8, ptr %0, i64 8
  %15 = load ptr, ptr %14, align 8, !tbaa !45
  %16 = load ptr, ptr %0, align 8, !tbaa !48
  %.not = icmp eq ptr %15, %16
  br i1 %.not, label %._crit_edge, label %.lr.ph

.lr.ph:                                           ; preds = %3
  %17 = getelementptr inbounds nuw i8, ptr %4, i64 4
  %18 = getelementptr inbounds nuw i8, ptr %1, i64 8
  %19 = getelementptr inbounds nuw i8, ptr %1, i64 16
  br label %20

._crit_edge:                                      ; preds = %61, %3
  call void @llvm.lifetime.end.p0(i64 16, ptr nonnull %4) #21
  ret void

20:                                               ; preds = %.lr.ph, %61
  %21 = phi ptr [ %16, %.lr.ph ], [ %62, %61 ]
  %22 = phi ptr [ %15, %.lr.ph ], [ %63, %61 ]
  %.01820 = phi i64 [ 0, %.lr.ph ], [ %64, %61 ]
  %23 = getelementptr inbounds nuw %"class.cv::Mat", ptr %21, i64 %.01820
  %24 = getelementptr inbounds nuw i8, ptr %23, i64 12
  %25 = load i32, ptr %24, align 4, !tbaa !39
  %26 = load i32, ptr %8, align 8, !tbaa !94
  %27 = icmp sgt i32 %25, %26
  br i1 %27, label %28, label %61

28:                                               ; preds = %20
  %29 = getelementptr inbounds nuw i8, ptr %23, i64 8
  %30 = load i32, ptr %29, align 8, !tbaa !14
  %31 = load i32, ptr %11, align 4, !tbaa !96
  %32 = icmp sgt i32 %30, %31
  br i1 %32, label %33, label %61

33:                                               ; preds = %28
  %34 = call i32 @rand() #21
  %35 = load ptr, ptr %0, align 8, !tbaa !48
  %36 = getelementptr inbounds nuw %"class.cv::Mat", ptr %35, i64 %.01820, i32 3
  %37 = load i32, ptr %36, align 4, !tbaa !39
  %38 = load i32, ptr %8, align 8, !tbaa !94
  %39 = sub nsw i32 %37, %38
  %40 = srem i32 %34, %39
  store i32 %40, ptr %4, align 8, !tbaa !97
  %41 = call i32 @rand() #21
  %42 = load ptr, ptr %0, align 8, !tbaa !48
  %43 = getelementptr inbounds nuw %"class.cv::Mat", ptr %42, i64 %.01820
  %44 = getelementptr inbounds nuw i8, ptr %43, i64 8
  %45 = load i32, ptr %44, align 8, !tbaa !14
  %46 = load i32, ptr %11, align 4, !tbaa !96
  %47 = sub nsw i32 %45, %46
  %48 = srem i32 %41, %47
  store i32 %48, ptr %17, align 4, !tbaa !98
  call void @llvm.lifetime.start.p0(i64 96, ptr nonnull %5) #21
  call void @_ZN2cv3MatC1ERKS0_RKNS_5Rect_IiEE(ptr noundef nonnull align 8 dereferenceable(96) %5, ptr noundef nonnull align 8 dereferenceable(96) %43, ptr noundef nonnull align 4 dereferenceable(16) %4)
  call void @llvm.lifetime.start.p0(i64 96, ptr nonnull %6) #21
  invoke void @_ZNK2cv3Mat5cloneEv(ptr dead_on_unwind nonnull writable sret(%"class.cv::Mat") align 8 %6, ptr noundef nonnull align 8 dereferenceable(96) %5)
          to label %49 unwind label %56

49:                                               ; preds = %33
  %50 = load ptr, ptr %18, align 8, !tbaa !45
  %51 = load ptr, ptr %19, align 8, !tbaa !92
  %.not.i.i = icmp eq ptr %50, %51
  br i1 %.not.i.i, label %55, label %52

52:                                               ; preds = %49
  call void @_ZN2cv3MatC1EOS0_(ptr noundef nonnull align 8 dereferenceable(96) %50, ptr noundef nonnull align 8 dereferenceable(96) %6) #21
  %53 = load ptr, ptr %18, align 8, !tbaa !45
  %54 = getelementptr inbounds nuw i8, ptr %53, i64 96
  store ptr %54, ptr %18, align 8, !tbaa !45
  br label %_ZNSt6vectorIN2cv3MatESaIS1_EE9push_backEOS1_.exit

55:                                               ; preds = %49
  invoke void @_ZNSt6vectorIN2cv3MatESaIS1_EE17_M_realloc_insertIJS1_EEEvN9__gnu_cxx17__normal_iteratorIPS1_S3_EEDpOT_(ptr noundef nonnull align 8 dereferenceable(24) %1, ptr %50, ptr noundef nonnull align 8 dereferenceable(96) %6)
          to label %_ZNSt6vectorIN2cv3MatESaIS1_EE9push_backEOS1_.exit unwind label %58

_ZNSt6vectorIN2cv3MatESaIS1_EE9push_backEOS1_.exit: ; preds = %52, %55
  call void @_ZN2cv3MatD1Ev(ptr noundef nonnull align 8 dereferenceable(96) %6) #21
  call void @llvm.lifetime.end.p0(i64 96, ptr nonnull %6) #21
  call void @_ZN2cv3MatD1Ev(ptr noundef nonnull align 8 dereferenceable(96) %5) #21
  call void @llvm.lifetime.end.p0(i64 96, ptr nonnull %5) #21
  %.pre = load ptr, ptr %14, align 8, !tbaa !45
  %.pre21 = load ptr, ptr %0, align 8, !tbaa !48
  br label %61

56:                                               ; preds = %33
  %57 = landingpad { ptr, i32 }
          cleanup
  br label %60

58:                                               ; preds = %55
  %59 = landingpad { ptr, i32 }
          cleanup
  call void @_ZN2cv3MatD1Ev(ptr noundef nonnull align 8 dereferenceable(96) %6) #21
  br label %60

60:                                               ; preds = %58, %56
  %.pn = phi { ptr, i32 } [ %59, %58 ], [ %57, %56 ]
  call void @llvm.lifetime.end.p0(i64 96, ptr nonnull %6) #21
  call void @_ZN2cv3MatD1Ev(ptr noundef nonnull align 8 dereferenceable(96) %5) #21
  call void @llvm.lifetime.end.p0(i64 96, ptr nonnull %5) #21
  call void @llvm.lifetime.end.p0(i64 16, ptr nonnull %4) #21
  resume { ptr, i32 } %.pn

61:                                               ; preds = %20, %28, %_ZNSt6vectorIN2cv3MatESaIS1_EE9push_backEOS1_.exit
  %62 = phi ptr [ %21, %20 ], [ %21, %28 ], [ %.pre21, %_ZNSt6vectorIN2cv3MatESaIS1_EE9push_backEOS1_.exit ]
  %63 = phi ptr [ %22, %20 ], [ %22, %28 ], [ %.pre, %_ZNSt6vectorIN2cv3MatESaIS1_EE9push_backEOS1_.exit ]
  %64 = add nuw i64 %.01820, 1
  %65 = ptrtoint ptr %63 to i64
  %66 = ptrtoint ptr %62 to i64
  %67 = sub i64 %65, %66
  %68 = sdiv exact i64 %67, 96
  %69 = icmp ult i64 %64, %68
  br i1 %69, label %20, label %._crit_edge, !llvm.loop !99
}